; Function Attrs: mustprogress nounwind uwtable
define hidden void @_ZN4llvm13CodeViewDebug15endCVSubsectionEPNS_8MCSymbolE(ptr noundef nonnull readonly align 8 captures(none) dereferenceable(1312) %0, ptr noundef %1) local_unnamed_addr #0 align 2 {
  %3 = getelementptr inbounds nuw i8, ptr %0, i64 480
  %4 = load ptr, ptr %3, align 8
  %5 = load ptr, ptr %4, align 8
  %6 = getelementptr inbounds nuw i8, ptr %5, i64 200
  %7 = load ptr, ptr %6, align 8
  tail call void %7(ptr noundef nonnull align 8 dereferenceable(288) %4, ptr noundef %1, ptr null) #23
  %8 = load ptr, ptr %3, align 8
  %9 = load ptr, ptr %8, align 8
  %10 = getelementptr inbounds nuw i8, ptr %9, i64 640
  %11 = load ptr, ptr %10, align 8
  tail call void %11(ptr noundef nonnull align 8 dereferenceable(288) %8, i8 2, i64 noundef 0, i32 noundef 1, i32 noundef 0) #23
  ret void
}